; Function Attrs: mustprogress uwtable
define noalias ptr @lean_io_realpath(ptr noundef %0, ptr noundef readnone captures(none) %1) local_unnamed_addr #0 {
  %3 = alloca [4096 x i8], align 16
  call void @llvm.lifetime.start.p0(i64 4096, ptr nonnull %3) #27
  %4 = getelementptr inbounds nuw i8, ptr %0, i64 32
  %5 = call ptr @realpath(ptr noundef nonnull %4, ptr noundef nonnull %3) #27
  %.not = icmp eq ptr %5, null
  br i1 %.not, label %20, label %6

6:                                                ; preds = %2
  %7 = call noundef ptr @lean_mk_string(ptr noundef nonnull %5)
  %8 = load i32, ptr %0, align 4, !tbaa !7
  %9 = icmp sgt i32 %8, 1
  br i1 %9, label %10, label %12, !prof !10

10:                                               ; preds = %6
  %11 = add nsw i32 %8, -1
  store i32 %11, ptr %0, align 4, !tbaa !7
  br label %_ZN4lean7dec_refEP11lean_object.exit

12:                                               ; preds = %6
  %.not.i.i = icmp eq i32 %8, 0
  br i1 %.not.i.i, label %_ZN4lean7dec_refEP11lean_object.exit, label %13

13:                                               ; preds = %12
  call void @lean_dec_ref_cold(ptr noundef nonnull %0)
  br label %_ZN4lean7dec_refEP11lean_object.exit

_ZN4lean7dec_refEP11lean_object.exit:             ; preds = %10, %12, %13
  call void @lean_inc_heartbeat()
  %14 = call noalias ptr @mi_malloc_small(i64 noundef 24) #27
  %15 = icmp eq ptr %14, null
  br i1 %15, label %16, label %_ZN4lean15io_result_mk_okEP11lean_object.exit

16:                                               ; preds = %_ZN4lean7dec_refEP11lean_object.exit
  call void @lean_internal_panic_out_of_memory() #28
  unreachable

_ZN4lean15io_result_mk_okEP11lean_object.exit:    ; preds = %_ZN4lean7dec_refEP11lean_object.exit
  %17 = getelementptr inbounds nuw i8, ptr %14, i64 4
  store i32 1, ptr %14, align 4, !tbaa !7
  store i32 131096, ptr %17, align 4
  %18 = getelementptr inbounds nuw i8, ptr %14, i64 8
  store ptr %7, ptr %18, align 8, !tbaa !3
  %19 = getelementptr inbounds nuw i8, ptr %14, i64 16
  store ptr inttoptr (i64 1 to ptr), ptr %19, align 8, !tbaa !3
  br label %_ZN4lean7dec_refEP11lean_object.exit12

20:                                               ; preds = %2
  %21 = ptrtoint ptr %0 to i64
  %22 = and i64 %21, 1
  %.not.i.i10 = icmp eq i64 %22, 0
  br i1 %.not.i.i10, label %23, label %_ZN4lean3incEP11lean_object.exit.i

23:                                               ; preds = %20
  %.val.i.i.i = load i32, ptr %0, align 4, !tbaa !7
  %24 = icmp sgt i32 %.val.i.i.i, 0
  br i1 %24, label %25, label %27, !prof !10

25:                                               ; preds = %23
  %26 = add nuw nsw i32 %.val.i.i.i, 1
  store i32 %26, ptr %0, align 4, !tbaa !7
  br label %_ZN4lean3incEP11lean_object.exit.i

27:                                               ; preds = %23
  %.not.i.i.i = icmp eq i32 %.val.i.i.i, 0
  br i1 %.not.i.i.i, label %_ZN4lean3incEP11lean_object.exit.i, label %28

28:                                               ; preds = %27
  call void @lean_inc_ref_cold(ptr noundef nonnull %0)
  br label %_ZN4lean3incEP11lean_object.exit.i

_ZN4lean3incEP11lean_object.exit.i:               ; preds = %28, %27, %25, %20
  %29 = call noundef ptr @lean_mk_string(ptr noundef nonnull @.str.16)
  %30 = call ptr @lean_mk_io_error_no_file_or_directory(ptr noundef nonnull %0, i32 noundef 2, ptr noundef %29)
  call void @lean_inc_heartbeat()
  %31 = call noalias ptr @mi_malloc_small(i64 noundef 24) #27
  %32 = icmp eq ptr %31, null
  br i1 %32, label %33, label %_ZN4leanL23mk_file_not_found_errorEP11lean_object.exit

33:                                               ; preds = %_ZN4lean3incEP11lean_object.exit.i
  call void @lean_internal_panic_out_of_memory() #28
  unreachable

_ZN4leanL23mk_file_not_found_errorEP11lean_object.exit: ; preds = %_ZN4lean3incEP11lean_object.exit.i
  %34 = getelementptr inbounds nuw i8, ptr %31, i64 4
  store i32 1, ptr %31, align 4, !tbaa !7
  store i32 16908312, ptr %34, align 4
  %35 = getelementptr inbounds nuw i8, ptr %31, i64 8
  store ptr %30, ptr %35, align 8, !tbaa !3
  %36 = getelementptr inbounds nuw i8, ptr %31, i64 16
  store ptr inttoptr (i64 1 to ptr), ptr %36, align 8, !tbaa !3
  %37 = load i32, ptr %0, align 4, !tbaa !7
  %38 = icmp sgt i32 %37, 1
  br i1 %38, label %39, label %41, !prof !10

39:                                               ; preds = %_ZN4leanL23mk_file_not_found_errorEP11lean_object.exit
  %40 = add nsw i32 %37, -1
  store i32 %40, ptr %0, align 4, !tbaa !7
  br label %_ZN4lean7dec_refEP11lean_object.exit12

41:                                               ; preds = %_ZN4leanL23mk_file_not_found_errorEP11lean_object.exit
  %.not.i.i11 = icmp eq i32 %37, 0
  br i1 %.not.i.i11, label %_ZN4lean7dec_refEP11lean_object.exit12, label %42

42:                                               ; preds = %41
  call void @lean_dec_ref_cold(ptr noundef nonnull %0)
  br label %_ZN4lean7dec_refEP11lean_object.exit12

_ZN4lean7dec_refEP11lean_object.exit12:           ; preds = %42, %41, %39, %_ZN4lean15io_result_mk_okEP11lean_object.exit
  %.0 = phi ptr [ %14, %_ZN4lean15io_result_mk_okEP11lean_object.exit ], [ %31, %39 ], [ %31, %41 ], [ %31, %42 ]
  call void @llvm.lifetime.end.p0(i64 4096, ptr nonnull %3) #27
  ret ptr %.0
}